target datalayout = "e-m:e-p270:32:32-p271:32:32-p272:64:64-i64:64-i128:128-f80:128-n8:16:32:64-S128"
target triple = "x86_64-pc-linux-gnu"

%struct.pg_conn = type { ptr, ptr, ptr, ptr, ptr, ptr, ptr, ptr, ptr, ptr, ptr, ptr, ptr, ptr, ptr, ptr, ptr, ptr, ptr, ptr, ptr, ptr, ptr, ptr, ptr, ptr, ptr, ptr, ptr, ptr, ptr, ptr, ptr, ptr, ptr, ptr, ptr, ptr, ptr, ptr, ptr, ptr, ptr, i8, ptr, i32, %struct.PGNoticeHooks, ptr, i32, i32, i32, i32, i32, [6 x i8], i8, i8, i32, i8, i8, i32, i8, i32, ptr, ptr, i32, i32, ptr, ptr, ptr, ptr, ptr, i32, %struct.SockAddr, %struct.SockAddr, i32, i32, i8, i8, i8, i8, i8, i8, ptr, i8, i32, [1 x ptr], i8, i8, ptr, ptr, i32, i32, i32, i8, i8, i32, i32, ptr, i8, i64, ptr, i64, ptr, i32, i32, ptr, i32, i8, i32, i32, i32, i32, ptr, %struct.pg_prng_state, ptr, i32, i32, i32, i32, ptr, i32, i32, i32, i32, ptr, i32, ptr, i8, ptr, ptr, ptr, i32, i8, i8, i8, i8, i8, i8, i8, i8, %struct.PQExpBufferData, i32, %struct.PQExpBufferData }
%struct.PGNoticeHooks = type { ptr, ptr, ptr, ptr }
%struct.SockAddr = type { %struct.sockaddr_storage, i32 }
%struct.sockaddr_storage = type { i16, [118 x i8], i64 }
%struct.pg_prng_state = type { i64, i64 }
%struct.PQExpBufferData = type { ptr, i64, i64 }
%struct.pg_conn_host = type { i32, ptr, ptr, ptr, ptr }

@.str.129 = private unnamed_addr constant [5 x i8] c"5432\00", align 1
@.str.215 = private unnamed_addr constant [45 x i8] c"connection to server on socket \22%s\22 failed: \00", align 1
@.str.216 = private unnamed_addr constant [52 x i8] c"connection to server at \22%s\22 (%s), port %s failed: \00", align 1
@.str.217 = private unnamed_addr constant [47 x i8] c"connection to server at \22%s\22, port %s failed: \00", align 1

; Function Attrs: nounwind uwtable
define internal void @emitHostIdentityInfo(ptr noundef %0, ptr noundef %1) #0 {
  %3 = alloca ptr, align 8
  %4 = alloca ptr, align 8
  %5 = alloca [1025 x i8], align 16
  %6 = alloca ptr, align 8
  %7 = alloca ptr, align 8
  store ptr %0, ptr %3, align 8
  store ptr %1, ptr %4, align 8
  %8 = load ptr, ptr %3, align 8
  %9 = getelementptr inbounds nuw %struct.pg_conn, ptr %8, i32 0, i32 73
  %10 = getelementptr inbounds nuw %struct.SockAddr, ptr %9, i32 0, i32 0
  %11 = getelementptr inbounds nuw %struct.sockaddr_storage, ptr %10, i32 0, i32 0
  %12 = load i16, ptr %11, align 8
  %13 = zext i16 %12 to i32
  %14 = icmp eq i32 %13, 1
  br i1 %14, label %15, label %28

15:                                               ; preds = %2
  call void @llvm.lifetime.start.p0(i64 1025, ptr %5) #12
  %16 = load ptr, ptr %3, align 8
  %17 = getelementptr inbounds nuw %struct.pg_conn, ptr %16, i32 0, i32 73
  %18 = getelementptr inbounds nuw %struct.SockAddr, ptr %17, i32 0, i32 0
  %19 = load ptr, ptr %3, align 8
  %20 = getelementptr inbounds nuw %struct.pg_conn, ptr %19, i32 0, i32 73
  %21 = getelementptr inbounds nuw %struct.SockAddr, ptr %20, i32 0, i32 1
  %22 = load i32, ptr %21, align 8
  %23 = getelementptr inbounds [1025 x i8], ptr %5, i64 0, i64 0
  %24 = call i32 @pg_getnameinfo_all(ptr noundef %18, i32 noundef %22, ptr noundef null, i32 noundef 0, ptr noundef %23, i32 noundef 1025, i32 noundef 2)
  %25 = load ptr, ptr %3, align 8
  %26 = getelementptr inbounds nuw %struct.pg_conn, ptr %25, i32 0, i32 140
  %27 = getelementptr inbounds [1025 x i8], ptr %5, i64 0, i64 0
  call void (ptr, ptr, ...) @appendPQExpBuffer(ptr noundef %26, ptr noundef @.str.215, ptr noundef %27)
  call void @llvm.lifetime.end.p0(i64 1025, ptr %5) #12
  br label %117

28:                                               ; preds = %2
  call void @llvm.lifetime.start.p0(i64 8, ptr %6) #12
  call void @llvm.lifetime.start.p0(i64 8, ptr %7) #12
  %29 = load ptr, ptr %3, align 8
  %30 = getelementptr inbounds nuw %struct.pg_conn, ptr %29, i32 0, i32 66
  %31 = load ptr, ptr %30, align 8
  %32 = load ptr, ptr %3, align 8
  %33 = getelementptr inbounds nuw %struct.pg_conn, ptr %32, i32 0, i32 65
  %34 = load i32, ptr %33, align 4
  %35 = sext i32 %34 to i64
  %36 = getelementptr inbounds %struct.pg_conn_host, ptr %31, i64 %35
  %37 = getelementptr inbounds nuw %struct.pg_conn_host, ptr %36, i32 0, i32 0
  %38 = load i32, ptr %37, align 8
  %39 = icmp eq i32 %38, 1
  br i1 %39, label %40, label %51

40:                                               ; preds = %28
  %41 = load ptr, ptr %3, align 8
  %42 = getelementptr inbounds nuw %struct.pg_conn, ptr %41, i32 0, i32 66
  %43 = load ptr, ptr %42, align 8
  %44 = load ptr, ptr %3, align 8
  %45 = getelementptr inbounds nuw %struct.pg_conn, ptr %44, i32 0, i32 65
  %46 = load i32, ptr %45, align 4
  %47 = sext i32 %46 to i64
  %48 = getelementptr inbounds %struct.pg_conn_host, ptr %43, i64 %47
  %49 = getelementptr inbounds nuw %struct.pg_conn_host, ptr %48, i32 0, i32 2
  %50 = load ptr, ptr %49, align 8
  store ptr %50, ptr %6, align 8
  br label %62

51:                                               ; preds = %28
  %52 = load ptr, ptr %3, align 8
  %53 = getelementptr inbounds nuw %struct.pg_conn, ptr %52, i32 0, i32 66
  %54 = load ptr, ptr %53, align 8
  %55 = load ptr, ptr %3, align 8
  %56 = getelementptr inbounds nuw %struct.pg_conn, ptr %55, i32 0, i32 65
  %57 = load i32, ptr %56, align 4
  %58 = sext i32 %57 to i64
  %59 = getelementptr inbounds %struct.pg_conn_host, ptr %54, i64 %58
  %60 = getelementptr inbounds nuw %struct.pg_conn_host, ptr %59, i32 0, i32 1
  %61 = load ptr, ptr %60, align 8
  store ptr %61, ptr %6, align 8
  br label %62

62:                                               ; preds = %51, %40
  %63 = load ptr, ptr %3, align 8
  %64 = getelementptr inbounds nuw %struct.pg_conn, ptr %63, i32 0, i32 66
  %65 = load ptr, ptr %64, align 8
  %66 = load ptr, ptr %3, align 8
  %67 = getelementptr inbounds nuw %struct.pg_conn, ptr %66, i32 0, i32 65
  %68 = load i32, ptr %67, align 4
  %69 = sext i32 %68 to i64
  %70 = getelementptr inbounds %struct.pg_conn_host, ptr %65, i64 %69
  %71 = getelementptr inbounds nuw %struct.pg_conn_host, ptr %70, i32 0, i32 3
  %72 = load ptr, ptr %71, align 8
  store ptr %72, ptr %7, align 8
  %73 = load ptr, ptr %7, align 8
  %74 = icmp eq ptr %73, null
  br i1 %74, label %81, label %75

75:                                               ; preds = %62
  %76 = load ptr, ptr %7, align 8
  %77 = getelementptr inbounds i8, ptr %76, i64 0
  %78 = load i8, ptr %77, align 1
  %79 = sext i8 %78 to i32
  %80 = icmp eq i32 %79, 0
  br i1 %80, label %81, label %82

81:                                               ; preds = %75, %62
  store ptr @.str.129, ptr %7, align 8
  br label %82

82:                                               ; preds = %81, %75
  %83 = load ptr, ptr %3, align 8
  %84 = getelementptr inbounds nuw %struct.pg_conn, ptr %83, i32 0, i32 66
  %85 = load ptr, ptr %84, align 8
  %86 = load ptr, ptr %3, align 8
  %87 = getelementptr inbounds nuw %struct.pg_conn, ptr %86, i32 0, i32 65
  %88 = load i32, ptr %87, align 4
  %89 = sext i32 %88 to i64
  %90 = getelementptr inbounds %struct.pg_conn_host, ptr %85, i64 %89
  %91 = getelementptr inbounds nuw %struct.pg_conn_host, ptr %90, i32 0, i32 0
  %92 = load i32, ptr %91, align 8
  %93 = icmp ne i32 %92, 1
  br i1 %93, label %94, label %111

94:                                               ; preds = %82
  %95 = load ptr, ptr %4, align 8
  %96 = getelementptr inbounds i8, ptr %95, i64 0
  %97 = load i8, ptr %96, align 1
  %98 = sext i8 %97 to i32
  %99 = icmp ne i32 %98, 0
  br i1 %99, label %100, label %111

100:                                              ; preds = %94
  %101 = load ptr, ptr %6, align 8
  %102 = load ptr, ptr %4, align 8
  %103 = call i32 @strcmp(ptr noundef %101, ptr noundef %102) #13
  %104 = icmp ne i32 %103, 0
  br i1 %104, label %105, label %111

105:                                              ; preds = %100
  %106 = load ptr, ptr %3, align 8
  %107 = getelementptr inbounds nuw %struct.pg_conn, ptr %106, i32 0, i32 140
  %108 = load ptr, ptr %6, align 8
  %109 = load ptr, ptr %4, align 8
  %110 = load ptr, ptr %7, align 8
  call void (ptr, ptr, ...) @appendPQExpBuffer(ptr noundef %107, ptr noundef @.str.216, ptr noundef %108, ptr noundef %109, ptr noundef %110)
  br label %116

111:                                              ; preds = %100, %94, %82
  %112 = load ptr, ptr %3, align 8
  %113 = getelementptr inbounds nuw %struct.pg_conn, ptr %112, i32 0, i32 140
  %114 = load ptr, ptr %6, align 8
  %115 = load ptr, ptr %7, align 8
  call void (ptr, ptr, ...) @appendPQExpBuffer(ptr noundef %113, ptr noundef @.str.217, ptr noundef %114, ptr noundef %115)
  br label %116

116:                                              ; preds = %111, %105
  call void @llvm.lifetime.end.p0(i64 8, ptr %7) #12
  call void @llvm.lifetime.end.p0(i64 8, ptr %6) #12
  br label %117

117:                                              ; preds = %116, %15
  ret void
}