; Function Attrs: nounwind uwtable
define internal fastcc void @emitHostIdentityInfo(ptr noundef nonnull %0, ptr noundef nonnull %1) unnamed_addr #0 {
  %3 = alloca [1025 x i8], align 16
  %4 = getelementptr inbounds nuw i8, ptr %0, i64 664
  %5 = load i16, ptr %4, align 8
  %6 = icmp eq i16 %5, 1
  br i1 %6, label %7, label %12

7:                                                ; preds = %2
  call void @llvm.lifetime.start.p0(i64 1025, ptr nonnull %3) #25
  %8 = getelementptr inbounds nuw i8, ptr %0, i64 792
  %9 = load i32, ptr %8, align 8
  %10 = call i32 @pg_getnameinfo_all(ptr noundef nonnull %4, i32 noundef %9, ptr noundef null, i32 noundef 0, ptr noundef nonnull %3, i32 noundef 1025, i32 noundef 2) #25
  %11 = getelementptr inbounds nuw i8, ptr %0, i64 1120
  call void (ptr, ptr, ...) @appendPQExpBuffer(ptr noundef nonnull %11, ptr noundef nonnull @.str.215, ptr noundef nonnull %3) #25
  call void @llvm.lifetime.end.p0(i64 1025, ptr nonnull %3) #25
  br label %37

12:                                               ; preds = %2
  %13 = getelementptr inbounds nuw i8, ptr %0, i64 480
  %14 = load ptr, ptr %13, align 8
  %15 = getelementptr inbounds nuw i8, ptr %0, i64 476
  %16 = load i32, ptr %15, align 4
  %17 = sext i32 %16 to i64
  %18 = getelementptr inbounds %struct.pg_conn_host, ptr %14, i64 %17
  %19 = load i32, ptr %18, align 8
  %20 = icmp eq i32 %19, 1
  %.026.in.v = select i1 %20, i64 16, i64 8
  %.026.in = getelementptr inbounds nuw i8, ptr %18, i64 %.026.in.v
  %.026 = load ptr, ptr %.026.in, align 8
  %21 = getelementptr inbounds %struct.pg_conn_host, ptr %14, i64 %17, i32 3
  %22 = load ptr, ptr %21, align 8
  %23 = icmp eq ptr %22, null
  br i1 %23, label %27, label %24

24:                                               ; preds = %12
  %25 = load i8, ptr %22, align 1
  %26 = icmp eq i8 %25, 0
  br i1 %26, label %27, label %28

27:                                               ; preds = %24, %12
  br label %28

28:                                               ; preds = %27, %24
  %.0 = phi ptr [ @.str.129, %27 ], [ %22, %24 ]
  br i1 %20, label %35, label %29

29:                                               ; preds = %28
  %30 = load i8, ptr %1, align 1
  %.not28 = icmp eq i8 %30, 0
  br i1 %.not28, label %35, label %31

31:                                               ; preds = %29
  %32 = tail call i32 @strcmp(ptr noundef nonnull dereferenceable(1) %.026, ptr noundef nonnull dereferenceable(1) %1) #26
  %.not29 = icmp eq i32 %32, 0
  br i1 %.not29, label %35, label %33

33:                                               ; preds = %31
  %34 = getelementptr inbounds nuw i8, ptr %0, i64 1120
  tail call void (ptr, ptr, ...) @appendPQExpBuffer(ptr noundef nonnull %34, ptr noundef nonnull @.str.216, ptr noundef nonnull %.026, ptr noundef nonnull %1, ptr noundef nonnull %.0) #25
  br label %37

35:                                               ; preds = %31, %29, %28
  %36 = getelementptr inbounds nuw i8, ptr %0, i64 1120
  tail call void (ptr, ptr, ...) @appendPQExpBuffer(ptr noundef nonnull %36, ptr noundef nonnull @.str.217, ptr noundef %.026, ptr noundef nonnull %.0) #25
  br label %37

37:                                               ; preds = %33, %35, %7
  ret void
}